target datalayout = "e-m:e-p270:32:32-p271:32:32-p272:64:64-i64:64-i128:128-f80:128-n8:16:32:64-S128"
target triple = "x86_64-pc-linux-gnu"

; Function Attrs: alwaysinline nounwind
define internal ptr @memcpy.inline(ptr noalias nonnull %0, ptr noalias nonnull %1, i64 %2) #3 {
  %4 = alloca ptr, align 8
  %5 = alloca ptr, align 8
  %6 = alloca i64, align 8
  store ptr %0, ptr %4, align 8
  store ptr %1, ptr %5, align 8
  store i64 %2, ptr %6, align 8
  %7 = load ptr, ptr %4, align 8
  %8 = load ptr, ptr %5, align 8
  %9 = load i64, ptr %6, align 8
  %10 = load ptr, ptr %4, align 8
  %11 = call i64 @llvm.objectsize.i64.p0(ptr %10, i1 false, i1 true, i1 true)
  %12 = call ptr @__memcpy_chk(ptr noundef %7, ptr noundef %8, i64 noundef %9, i64 noundef %11) #8
  ret ptr %12
}

; Function Attrs: inlinehint nounwind ssp uwtable
define internal void @store64_le(ptr noundef %0, i64 noundef %1) #2 {
  %3 = alloca ptr, align 8
  %4 = alloca i64, align 8
  store ptr %0, ptr %3, align 8
  store i64 %1, ptr %4, align 8
  %5 = load ptr, ptr %3, align 8
  %6 = call ptr @memcpy.inline(ptr noundef %5, ptr noundef %4, i64 noundef 8) #8
  ret void
}

; Function Attrs: nounwind ssp uwtable
define internal void @fe25519_reduce(ptr noundef %0, ptr noundef %1) #0 {
  %3 = alloca ptr, align 8
  %4 = alloca ptr, align 8
  %5 = alloca i64, align 8
  %6 = alloca [5 x i128], align 16
  store ptr %0, ptr %3, align 8
  store ptr %1, ptr %4, align 8
  call void @llvm.lifetime.start.p0(i64 8, ptr %5) #8
  store i64 2251799813685247, ptr %5, align 8
  call void @llvm.lifetime.start.p0(i64 80, ptr %6) #8
  %7 = load ptr, ptr %4, align 8
  %8 = getelementptr i64, ptr %7, i64 0
  %9 = load i64, ptr %8, align 8
  %10 = zext i64 %9 to i128
  %11 = getelementptr [5 x i128], ptr %6, i64 0, i64 0
  store i128 %10, ptr %11, align 16
  %12 = load ptr, ptr %4, align 8
  %13 = getelementptr i64, ptr %12, i64 1
  %14 = load i64, ptr %13, align 8
  %15 = zext i64 %14 to i128
  %16 = getelementptr [5 x i128], ptr %6, i64 0, i64 1
  store i128 %15, ptr %16, align 16
  %17 = load ptr, ptr %4, align 8
  %18 = getelementptr i64, ptr %17, i64 2
  %19 = load i64, ptr %18, align 8
  %20 = zext i64 %19 to i128
  %21 = getelementptr [5 x i128], ptr %6, i64 0, i64 2
  store i128 %20, ptr %21, align 16
  %22 = load ptr, ptr %4, align 8
  %23 = getelementptr i64, ptr %22, i64 3
  %24 = load i64, ptr %23, align 8
  %25 = zext i64 %24 to i128
  %26 = getelementptr [5 x i128], ptr %6, i64 0, i64 3
  store i128 %25, ptr %26, align 16
  %27 = load ptr, ptr %4, align 8
  %28 = getelementptr i64, ptr %27, i64 4
  %29 = load i64, ptr %28, align 8
  %30 = zext i64 %29 to i128
  %31 = getelementptr [5 x i128], ptr %6, i64 0, i64 4
  store i128 %30, ptr %31, align 16
  %32 = getelementptr [5 x i128], ptr %6, i64 0, i64 0
  %33 = load i128, ptr %32, align 16
  %34 = lshr i128 %33, 51
  %35 = getelementptr [5 x i128], ptr %6, i64 0, i64 1
  %36 = load i128, ptr %35, align 16
  %37 = add i128 %36, %34
  store i128 %37, ptr %35, align 16
  %38 = getelementptr [5 x i128], ptr %6, i64 0, i64 0
  %39 = load i128, ptr %38, align 16
  %40 = and i128 %39, 2251799813685247
  store i128 %40, ptr %38, align 16
  %41 = getelementptr [5 x i128], ptr %6, i64 0, i64 1
  %42 = load i128, ptr %41, align 16
  %43 = lshr i128 %42, 51
  %44 = getelementptr [5 x i128], ptr %6, i64 0, i64 2
  %45 = load i128, ptr %44, align 16
  %46 = add i128 %45, %43
  store i128 %46, ptr %44, align 16
  %47 = getelementptr [5 x i128], ptr %6, i64 0, i64 1
  %48 = load i128, ptr %47, align 16
  %49 = and i128 %48, 2251799813685247
  store i128 %49, ptr %47, align 16
  %50 = getelementptr [5 x i128], ptr %6, i64 0, i64 2
  %51 = load i128, ptr %50, align 16
  %52 = lshr i128 %51, 51
  %53 = getelementptr [5 x i128], ptr %6, i64 0, i64 3
  %54 = load i128, ptr %53, align 16
  %55 = add i128 %54, %52
  store i128 %55, ptr %53, align 16
  %56 = getelementptr [5 x i128], ptr %6, i64 0, i64 2
  %57 = load i128, ptr %56, align 16
  %58 = and i128 %57, 2251799813685247
  store i128 %58, ptr %56, align 16
  %59 = getelementptr [5 x i128], ptr %6, i64 0, i64 3
  %60 = load i128, ptr %59, align 16
  %61 = lshr i128 %60, 51
  %62 = getelementptr [5 x i128], ptr %6, i64 0, i64 4
  %63 = load i128, ptr %62, align 16
  %64 = add i128 %63, %61
  store i128 %64, ptr %62, align 16
  %65 = getelementptr [5 x i128], ptr %6, i64 0, i64 3
  %66 = load i128, ptr %65, align 16
  %67 = and i128 %66, 2251799813685247
  store i128 %67, ptr %65, align 16
  %68 = getelementptr [5 x i128], ptr %6, i64 0, i64 4
  %69 = load i128, ptr %68, align 16
  %70 = lshr i128 %69, 51
  %71 = mul i128 19, %70
  %72 = getelementptr [5 x i128], ptr %6, i64 0, i64 0
  %73 = load i128, ptr %72, align 16
  %74 = add i128 %73, %71
  store i128 %74, ptr %72, align 16
  %75 = getelementptr [5 x i128], ptr %6, i64 0, i64 4
  %76 = load i128, ptr %75, align 16
  %77 = and i128 %76, 2251799813685247
  store i128 %77, ptr %75, align 16
  %78 = getelementptr [5 x i128], ptr %6, i64 0, i64 0
  %79 = load i128, ptr %78, align 16
  %80 = lshr i128 %79, 51
  %81 = getelementptr [5 x i128], ptr %6, i64 0, i64 1
  %82 = load i128, ptr %81, align 16
  %83 = add i128 %82, %80
  store i128 %83, ptr %81, align 16
  %84 = getelementptr [5 x i128], ptr %6, i64 0, i64 0
  %85 = load i128, ptr %84, align 16
  %86 = and i128 %85, 2251799813685247
  store i128 %86, ptr %84, align 16
  %87 = getelementptr [5 x i128], ptr %6, i64 0, i64 1
  %88 = load i128, ptr %87, align 16
  %89 = lshr i128 %88, 51
  %90 = getelementptr [5 x i128], ptr %6, i64 0, i64 2
  %91 = load i128, ptr %90, align 16
  %92 = add i128 %91, %89
  store i128 %92, ptr %90, align 16
  %93 = getelementptr [5 x i128], ptr %6, i64 0, i64 1
  %94 = load i128, ptr %93, align 16
  %95 = and i128 %94, 2251799813685247
  store i128 %95, ptr %93, align 16
  %96 = getelementptr [5 x i128], ptr %6, i64 0, i64 2
  %97 = load i128, ptr %96, align 16
  %98 = lshr i128 %97, 51
  %99 = getelementptr [5 x i128], ptr %6, i64 0, i64 3
  %100 = load i128, ptr %99, align 16
  %101 = add i128 %100, %98
  store i128 %101, ptr %99, align 16
  %102 = getelementptr [5 x i128], ptr %6, i64 0, i64 2
  %103 = load i128, ptr %102, align 16
  %104 = and i128 %103, 2251799813685247
  store i128 %104, ptr %102, align 16
  %105 = getelementptr [5 x i128], ptr %6, i64 0, i64 3
  %106 = load i128, ptr %105, align 16
  %107 = lshr i128 %106, 51
  %108 = getelementptr [5 x i128], ptr %6, i64 0, i64 4
  %109 = load i128, ptr %108, align 16
  %110 = add i128 %109, %107
  store i128 %110, ptr %108, align 16
  %111 = getelementptr [5 x i128], ptr %6, i64 0, i64 3
  %112 = load i128, ptr %111, align 16
  %113 = and i128 %112, 2251799813685247
  store i128 %113, ptr %111, align 16
  %114 = getelementptr [5 x i128], ptr %6, i64 0, i64 4
  %115 = load i128, ptr %114, align 16
  %116 = lshr i128 %115, 51
  %117 = mul i128 19, %116
  %118 = getelementptr [5 x i128], ptr %6, i64 0, i64 0
  %119 = load i128, ptr %118, align 16
  %120 = add i128 %119, %117
  store i128 %120, ptr %118, align 16
  %121 = getelementptr [5 x i128], ptr %6, i64 0, i64 4
  %122 = load i128, ptr %121, align 16
  %123 = and i128 %122, 2251799813685247
  store i128 %123, ptr %121, align 16
  %124 = getelementptr [5 x i128], ptr %6, i64 0, i64 0
  %125 = load i128, ptr %124, align 16
  %126 = add i128 %125, 19
  store i128 %126, ptr %124, align 16
  %127 = getelementptr [5 x i128], ptr %6, i64 0, i64 0
  %128 = load i128, ptr %127, align 16
  %129 = lshr i128 %128, 51
  %130 = getelementptr [5 x i128], ptr %6, i64 0, i64 1
  %131 = load i128, ptr %130, align 16
  %132 = add i128 %131, %129
  store i128 %132, ptr %130, align 16
  %133 = getelementptr [5 x i128], ptr %6, i64 0, i64 0
  %134 = load i128, ptr %133, align 16
  %135 = and i128 %134, 2251799813685247
  store i128 %135, ptr %133, align 16
  %136 = getelementptr [5 x i128], ptr %6, i64 0, i64 1
  %137 = load i128, ptr %136, align 16
  %138 = lshr i128 %137, 51
  %139 = getelementptr [5 x i128], ptr %6, i64 0, i64 2
  %140 = load i128, ptr %139, align 16
  %141 = add i128 %140, %138
  store i128 %141, ptr %139, align 16
  %142 = getelementptr [5 x i128], ptr %6, i64 0, i64 1
  %143 = load i128, ptr %142, align 16
  %144 = and i128 %143, 2251799813685247
  store i128 %144, ptr %142, align 16
  %145 = getelementptr [5 x i128], ptr %6, i64 0, i64 2
  %146 = load i128, ptr %145, align 16
  %147 = lshr i128 %146, 51
  %148 = getelementptr [5 x i128], ptr %6, i64 0, i64 3
  %149 = load i128, ptr %148, align 16
  %150 = add i128 %149, %147
  store i128 %150, ptr %148, align 16
  %151 = getelementptr [5 x i128], ptr %6, i64 0, i64 2
  %152 = load i128, ptr %151, align 16
  %153 = and i128 %152, 2251799813685247
  store i128 %153, ptr %151, align 16
  %154 = getelementptr [5 x i128], ptr %6, i64 0, i64 3
  %155 = load i128, ptr %154, align 16
  %156 = lshr i128 %155, 51
  %157 = getelementptr [5 x i128], ptr %6, i64 0, i64 4
  %158 = load i128, ptr %157, align 16
  %159 = add i128 %158, %156
  store i128 %159, ptr %157, align 16
  %160 = getelementptr [5 x i128], ptr %6, i64 0, i64 3
  %161 = load i128, ptr %160, align 16
  %162 = and i128 %161, 2251799813685247
  store i128 %162, ptr %160, align 16
  %163 = getelementptr [5 x i128], ptr %6, i64 0, i64 4
  %164 = load i128, ptr %163, align 16
  %165 = lshr i128 %164, 51
  %166 = mul i128 19, %165
  %167 = getelementptr [5 x i128], ptr %6, i64 0, i64 0
  %168 = load i128, ptr %167, align 16
  %169 = add i128 %168, %166
  store i128 %169, ptr %167, align 16
  %170 = getelementptr [5 x i128], ptr %6, i64 0, i64 4
  %171 = load i128, ptr %170, align 16
  %172 = and i128 %171, 2251799813685247
  store i128 %172, ptr %170, align 16
  %173 = getelementptr [5 x i128], ptr %6, i64 0, i64 0
  %174 = load i128, ptr %173, align 16
  %175 = add i128 %174, 2251799813685229
  store i128 %175, ptr %173, align 16
  %176 = getelementptr [5 x i128], ptr %6, i64 0, i64 1
  %177 = load i128, ptr %176, align 16
  %178 = add i128 %177, 2251799813685247
  store i128 %178, ptr %176, align 16
  %179 = getelementptr [5 x i128], ptr %6, i64 0, i64 2
  %180 = load i128, ptr %179, align 16
  %181 = add i128 %180, 2251799813685247
  store i128 %181, ptr %179, align 16
  %182 = getelementptr [5 x i128], ptr %6, i64 0, i64 3
  %183 = load i128, ptr %182, align 16
  %184 = add i128 %183, 2251799813685247
  store i128 %184, ptr %182, align 16
  %185 = getelementptr [5 x i128], ptr %6, i64 0, i64 4
  %186 = load i128, ptr %185, align 16
  %187 = add i128 %186, 2251799813685247
  store i128 %187, ptr %185, align 16
  %188 = getelementptr [5 x i128], ptr %6, i64 0, i64 0
  %189 = load i128, ptr %188, align 16
  %190 = lshr i128 %189, 51
  %191 = getelementptr [5 x i128], ptr %6, i64 0, i64 1
  %192 = load i128, ptr %191, align 16
  %193 = add i128 %192, %190
  store i128 %193, ptr %191, align 16
  %194 = getelementptr [5 x i128], ptr %6, i64 0, i64 0
  %195 = load i128, ptr %194, align 16
  %196 = and i128 %195, 2251799813685247
  store i128 %196, ptr %194, align 16
  %197 = getelementptr [5 x i128], ptr %6, i64 0, i64 1
  %198 = load i128, ptr %197, align 16
  %199 = lshr i128 %198, 51
  %200 = getelementptr [5 x i128], ptr %6, i64 0, i64 2
  %201 = load i128, ptr %200, align 16
  %202 = add i128 %201, %199
  store i128 %202, ptr %200, align 16
  %203 = getelementptr [5 x i128], ptr %6, i64 0, i64 1
  %204 = load i128, ptr %203, align 16
  %205 = and i128 %204, 2251799813685247
  store i128 %205, ptr %203, align 16
  %206 = getelementptr [5 x i128], ptr %6, i64 0, i64 2
  %207 = load i128, ptr %206, align 16
  %208 = lshr i128 %207, 51
  %209 = getelementptr [5 x i128], ptr %6, i64 0, i64 3
  %210 = load i128, ptr %209, align 16
  %211 = add i128 %210, %208
  store i128 %211, ptr %209, align 16
  %212 = getelementptr [5 x i128], ptr %6, i64 0, i64 2
  %213 = load i128, ptr %212, align 16
  %214 = and i128 %213, 2251799813685247
  store i128 %214, ptr %212, align 16
  %215 = getelementptr [5 x i128], ptr %6, i64 0, i64 3
  %216 = load i128, ptr %215, align 16
  %217 = lshr i128 %216, 51
  %218 = getelementptr [5 x i128], ptr %6, i64 0, i64 4
  %219 = load i128, ptr %218, align 16
  %220 = add i128 %219, %217
  store i128 %220, ptr %218, align 16
  %221 = getelementptr [5 x i128], ptr %6, i64 0, i64 3
  %222 = load i128, ptr %221, align 16
  %223 = and i128 %222, 2251799813685247
  store i128 %223, ptr %221, align 16
  %224 = getelementptr [5 x i128], ptr %6, i64 0, i64 4
  %225 = load i128, ptr %224, align 16
  %226 = and i128 %225, 2251799813685247
  store i128 %226, ptr %224, align 16
  %227 = getelementptr [5 x i128], ptr %6, i64 0, i64 0
  %228 = load i128, ptr %227, align 16
  %229 = trunc i128 %228 to i64
  %230 = load ptr, ptr %3, align 8
  %231 = getelementptr i64, ptr %230, i64 0
  store i64 %229, ptr %231, align 8
  %232 = getelementptr [5 x i128], ptr %6, i64 0, i64 1
  %233 = load i128, ptr %232, align 16
  %234 = trunc i128 %233 to i64
  %235 = load ptr, ptr %3, align 8
  %236 = getelementptr i64, ptr %235, i64 1
  store i64 %234, ptr %236, align 8
  %237 = getelementptr [5 x i128], ptr %6, i64 0, i64 2
  %238 = load i128, ptr %237, align 16
  %239 = trunc i128 %238 to i64
  %240 = load ptr, ptr %3, align 8
  %241 = getelementptr i64, ptr %240, i64 2
  store i64 %239, ptr %241, align 8
  %242 = getelementptr [5 x i128], ptr %6, i64 0, i64 3
  %243 = load i128, ptr %242, align 16
  %244 = trunc i128 %243 to i64
  %245 = load ptr, ptr %3, align 8
  %246 = getelementptr i64, ptr %245, i64 3
  store i64 %244, ptr %246, align 8
  %247 = getelementptr [5 x i128], ptr %6, i64 0, i64 4
  %248 = load i128, ptr %247, align 16
  %249 = trunc i128 %248 to i64
  %250 = load ptr, ptr %3, align 8
  %251 = getelementptr i64, ptr %250, i64 4
  store i64 %249, ptr %251, align 8
  call void @llvm.lifetime.end.p0(i64 80, ptr %6) #8
  call void @llvm.lifetime.end.p0(i64 8, ptr %5) #8
  ret void
}

; Function Attrs: nounwind ssp uwtable
define hidden void @_sodium_fe25519_tobytes(ptr noundef %0, ptr noundef %1) #0 {
  %3 = alloca ptr, align 8
  %4 = alloca ptr, align 8
  %5 = alloca [5 x i64], align 16
  %6 = alloca i64, align 8
  %7 = alloca i64, align 8
  %8 = alloca i64, align 8
  %9 = alloca i64, align 8
  store ptr %0, ptr %3, align 8
  store ptr %1, ptr %4, align 8
  call void @llvm.lifetime.start.p0(i64 40, ptr %5) #8
  call void @llvm.lifetime.start.p0(i64 8, ptr %6) #8
  call void @llvm.lifetime.start.p0(i64 8, ptr %7) #8
  call void @llvm.lifetime.start.p0(i64 8, ptr %8) #8
  call void @llvm.lifetime.start.p0(i64 8, ptr %9) #8
  %10 = getelementptr inbounds [5 x i64], ptr %5, i64 0, i64 0
  %11 = load ptr, ptr %4, align 8
  call void @fe25519_reduce(ptr noundef %10, ptr noundef %11)
  %12 = getelementptr [5 x i64], ptr %5, i64 0, i64 0
  %13 = load i64, ptr %12, align 16
  %14 = getelementptr [5 x i64], ptr %5, i64 0, i64 1
  %15 = load i64, ptr %14, align 8
  %16 = shl i64 %15, 51
  %17 = or i64 %13, %16
  store i64 %17, ptr %6, align 8
  %18 = getelementptr [5 x i64], ptr %5, i64 0, i64 1
  %19 = load i64, ptr %18, align 8
  %20 = lshr i64 %19, 13
  %21 = getelementptr [5 x i64], ptr %5, i64 0, i64 2
  %22 = load i64, ptr %21, align 16
  %23 = shl i64 %22, 38
  %24 = or i64 %20, %23
  store i64 %24, ptr %7, align 8
  %25 = getelementptr [5 x i64], ptr %5, i64 0, i64 2
  %26 = load i64, ptr %25, align 16
  %27 = lshr i64 %26, 26
  %28 = getelementptr [5 x i64], ptr %5, i64 0, i64 3
  %29 = load i64, ptr %28, align 8
  %30 = shl i64 %29, 25
  %31 = or i64 %27, %30
  store i64 %31, ptr %8, align 8
  %32 = getelementptr [5 x i64], ptr %5, i64 0, i64 3
  %33 = load i64, ptr %32, align 8
  %34 = lshr i64 %33, 39
  %35 = getelementptr [5 x i64], ptr %5, i64 0, i64 4
  %36 = load i64, ptr %35, align 16
  %37 = shl i64 %36, 12
  %38 = or i64 %34, %37
  store i64 %38, ptr %9, align 8
  %39 = load ptr, ptr %3, align 8
  %40 = getelementptr i8, ptr %39, i64 0
  %41 = load i64, ptr %6, align 8
  call void @store64_le(ptr noundef %40, i64 noundef %41)
  %42 = load ptr, ptr %3, align 8
  %43 = getelementptr i8, ptr %42, i64 8
  %44 = load i64, ptr %7, align 8
  call void @store64_le(ptr noundef %43, i64 noundef %44)
  %45 = load ptr, ptr %3, align 8
  %46 = getelementptr i8, ptr %45, i64 16
  %47 = load i64, ptr %8, align 8
  call void @store64_le(ptr noundef %46, i64 noundef %47)
  %48 = load ptr, ptr %3, align 8
  %49 = getelementptr i8, ptr %48, i64 24
  %50 = load i64, ptr %9, align 8
  call void @store64_le(ptr noundef %49, i64 noundef %50)
  call void @llvm.lifetime.end.p0(i64 8, ptr %9) #8
  call void @llvm.lifetime.end.p0(i64 8, ptr %8) #8
  call void @llvm.lifetime.end.p0(i64 8, ptr %7) #8
  call void @llvm.lifetime.end.p0(i64 8, ptr %6) #8
  call void @llvm.lifetime.end.p0(i64 40, ptr %5) #8
  ret void
}