; Function Attrs: nofree nounwind ssp memory(argmem: readwrite) uwtable
define hidden void @_sodium_fe25519_tobytes(ptr noundef %0, ptr noundef readonly captures(none) %1) local_unnamed_addr #2 {
  %3 = load i64, ptr %1, align 8
  %4 = zext i64 %3 to i128
  %5 = getelementptr i8, ptr %1, i64 8
  %6 = load i64, ptr %5, align 8
  %7 = zext i64 %6 to i128
  %8 = getelementptr i8, ptr %1, i64 16
  %9 = load i64, ptr %8, align 8
  %10 = zext i64 %9 to i128
  %11 = getelementptr i8, ptr %1, i64 24
  %12 = load i64, ptr %11, align 8
  %13 = zext i64 %12 to i128
  %14 = getelementptr i8, ptr %1, i64 32
  %15 = load i64, ptr %14, align 8
  %16 = zext i64 %15 to i128
  %17 = lshr i128 %4, 51
  %18 = add nuw nsw i128 %17, %7
  %19 = and i128 %4, 2251799813685247
  %20 = lshr i128 %18, 51
  %21 = add nuw nsw i128 %20, %10
  %22 = and i128 %18, 2251799813685247
  %23 = lshr i128 %21, 51
  %24 = add nuw nsw i128 %23, %13
  %25 = and i128 %21, 2251799813685247
  %26 = lshr i128 %24, 51
  %27 = add nuw nsw i128 %26, %16
  %28 = and i128 %24, 2251799813685247
  %29 = lshr i128 %27, 51
  %30 = mul nuw nsw i128 %29, 19
  %31 = add nuw nsw i128 %30, %19
  %32 = and i128 %27, 2251799813685247
  %33 = lshr i128 %31, 51
  %34 = add nuw nsw i128 %33, %22
  %35 = and i128 %31, 2251799813685247
  %36 = lshr i128 %34, 51
  %37 = add nuw nsw i128 %36, %25
  %38 = and i128 %34, 2251799813685247
  %39 = lshr i128 %37, 51
  %40 = add nuw nsw i128 %39, %28
  %41 = and i128 %37, 2251799813685247
  %42 = lshr i128 %40, 51
  %43 = add nuw nsw i128 %42, %32
  %44 = and i128 %40, 2251799813685247
  %45 = lshr i128 %43, 51
  %46 = mul nuw nsw i128 %45, 19
  %47 = and i128 %43, 2251799813685247
  %48 = add nuw nsw i128 %35, 19
  %49 = add nuw nsw i128 %48, %46
  %50 = lshr i128 %49, 51
  %51 = add nuw nsw i128 %50, %38
  %52 = and i128 %49, 2251799813685247
  %53 = lshr i128 %51, 51
  %54 = add nuw nsw i128 %53, %41
  %55 = and i128 %51, 2251799813685247
  %56 = lshr i128 %54, 51
  %57 = add nuw nsw i128 %56, %44
  %58 = and i128 %54, 2251799813685247
  %59 = lshr i128 %57, 51
  %60 = add nuw nsw i128 %59, %47
  %61 = and i128 %57, 2251799813685247
  %62 = lshr i128 %60, 51
  %63 = mul nuw nsw i128 %62, 19
  %64 = add nuw nsw i128 %52, 2251799813685229
  %65 = add nuw nsw i128 %64, %63
  %66 = add nuw nsw i128 %55, 2251799813685247
  %67 = add nuw nsw i128 %58, 2251799813685247
  %68 = add nuw nsw i128 %61, 2251799813685247
  %69 = add nuw nsw i128 %60, 2251799813685247
  %70 = lshr i128 %65, 51
  %71 = add nuw nsw i128 %66, %70
  %72 = lshr i128 %71, 51
  %73 = add nuw nsw i128 %67, %72
  %74 = lshr i128 %73, 51
  %75 = add nuw nsw i128 %68, %74
  %76 = lshr i128 %75, 51
  %77 = add nuw nsw i128 %69, %76
  %78 = trunc nuw nsw i128 %65 to i64
  %79 = and i64 %78, 2251799813685247
  %80 = trunc nuw nsw i128 %71 to i64
  %81 = trunc nuw nsw i128 %73 to i64
  %82 = trunc nuw nsw i128 %75 to i64
  %83 = trunc nuw nsw i128 %77 to i64
  %84 = shl i64 %80, 51
  %85 = or disjoint i64 %84, %79
  %86 = lshr i64 %80, 13
  %87 = and i64 %86, 274877906943
  %88 = shl i64 %81, 38
  %89 = or disjoint i64 %88, %87
  %90 = lshr i64 %81, 26
  %91 = and i64 %90, 33554431
  %92 = shl i64 %82, 25
  %93 = or disjoint i64 %92, %91
  %94 = lshr i64 %82, 39
  %95 = and i64 %94, 4095
  %96 = shl i64 %83, 12
  %97 = and i64 %96, 9223372036854771712
  %98 = or disjoint i64 %97, %95
  store i64 %85, ptr %0, align 1
  %99 = getelementptr i8, ptr %0, i64 8
  store i64 %89, ptr %99, align 1
  %100 = getelementptr i8, ptr %0, i64 16
  store i64 %93, ptr %100, align 1
  %101 = getelementptr i8, ptr %0, i64 24
  store i64 %98, ptr %101, align 1
  ret void
}